target datalayout = "e-m:e-p270:32:32-p271:32:32-p272:64:64-i64:64-i128:128-f80:128-n8:16:32:64-S128"
target triple = "x86_64-pc-linux-gnu"

@st_str_packets = internal global ptr @.str.799, align 8
@st_node_packet_qr = internal global i32 -1, align 4
@st_node_packet_qtypes = internal global i32 -1, align 4
@st_node_packet_qnames = internal global i32 -1, align 4
@st_node_packet_qclasses = internal global i32 -1, align 4
@st_node_packet_rcodes = internal global i32 -1, align 4
@st_node_packet_opcodes = internal global i32 -1, align 4
@st_str_packets_avg_size = internal global ptr @.str.891, align 8
@st_str_query_qname_len = internal global ptr @.str.892, align 8
@st_str_query_domains_l1 = internal global ptr @.str.893, align 8
@st_str_query_domains_l2 = internal global ptr @.str.894, align 8
@st_str_query_domains_l3 = internal global ptr @.str.895, align 8
@st_str_query_domains_lmore = internal global ptr @.str.896, align 8
@st_str_response_nquestions = internal global ptr @.str.897, align 8
@st_str_response_nanswers = internal global ptr @.str.898, align 8
@st_str_response_nauthorities = internal global ptr @.str.899, align 8
@st_str_response_nadditionals = internal global ptr @.str.900, align 8
@st_node_rr_types = internal global i32 -1, align 4
@st_str_service_unsolicited = internal global ptr @.str.901, align 8
@st_str_service_retransmission = internal global ptr @.str.902, align 8
@st_str_service_rrt = internal global ptr @.str.903, align 8
@st_str_packet_qr = internal global ptr @.str.904, align 8
@st_str_packet_qtypes = internal global ptr @.str.77, align 8
@st_str_rr_types = internal global ptr @.str.905, align 8
@st_str_packet_qnames = internal global ptr @.str.86, align 8
@st_str_packet_qclasses = internal global ptr @.str.78, align 8
@st_str_packet_rcodes = internal global ptr @.str.906, align 8
@st_str_packet_opcodes = internal global ptr @.str.907, align 8
@st_node_packets_avg_size = internal global i32 -1, align 4
@st_str_query_stats = internal global ptr @.str.908, align 8
@st_node_query_stats = internal global i32 -1, align 4
@st_node_query_qname_len = internal global i32 -1, align 4
@st_str_query_domains = internal global ptr @.str.909, align 8
@st_node_query_domains = internal global i32 -1, align 4
@st_node_query_domains_l1 = internal global i32 -1, align 4
@st_node_query_domains_l2 = internal global i32 -1, align 4
@st_node_query_domains_l3 = internal global i32 -1, align 4
@st_node_query_domains_lmore = internal global i32 -1, align 4
@st_str_response_stats = internal global ptr @.str.910, align 8
@st_node_response_stats = internal global i32 -1, align 4
@st_node_response_nquestions = internal global i32 -1, align 4
@st_node_response_nanswers = internal global i32 -1, align 4
@st_node_response_nauthorities = internal global i32 -1, align 4
@st_node_response_nadditionals = internal global i32 -1, align 4
@st_str_service_stats = internal global ptr @.str.911, align 8
@st_node_service_stats = internal global i32 -1, align 4
@st_node_service_unsolicited = internal global i32 -1, align 4
@st_node_service_retransmission = internal global i32 -1, align 4
@st_node_service_rrt = internal global i32 -1, align 4

; Function Attrs: null_pointer_is_valid sspstrong uwtable
define internal void @dns_stats_tree_init(ptr noundef %0) #0 {
  %2 = alloca ptr, align 8
  store ptr %0, ptr %2, align 8
  %3 = load ptr, ptr %2, align 8
  %4 = load ptr, ptr @st_str_packets, align 8
  %5 = call i32 @stats_tree_create_node(ptr noundef %3, ptr noundef %4, i32 noundef 0, i32 noundef 0, i1 noundef zeroext true)
  %6 = load ptr, ptr %2, align 8
  %7 = load ptr, ptr @st_str_packets, align 8
  %8 = call i32 @stats_tree_manip_node_int(i32 noundef 4, ptr noundef %6, ptr noundef %7, i32 noundef 0, i1 noundef zeroext false, i32 noundef 4194304)
  %9 = load ptr, ptr %2, align 8
  %10 = load ptr, ptr @st_str_packet_qr, align 8
  %11 = call i32 @stats_tree_create_pivot(ptr noundef %9, ptr noundef %10, i32 noundef 0)
  store i32 %11, ptr @st_node_packet_qr, align 4
  %12 = load ptr, ptr %2, align 8
  %13 = load ptr, ptr @st_str_packet_qtypes, align 8
  %14 = call i32 @stats_tree_create_pivot(ptr noundef %12, ptr noundef %13, i32 noundef 0)
  store i32 %14, ptr @st_node_packet_qtypes, align 4
  %15 = load ptr, ptr %2, align 8
  %16 = load ptr, ptr @st_str_rr_types, align 8
  %17 = call i32 @stats_tree_create_pivot(ptr noundef %15, ptr noundef %16, i32 noundef 0)
  store i32 %17, ptr @st_node_rr_types, align 4
  %18 = load ptr, ptr %2, align 8
  %19 = load ptr, ptr @st_str_packet_qnames, align 8
  %20 = call i32 @stats_tree_create_pivot(ptr noundef %18, ptr noundef %19, i32 noundef 0)
  store i32 %20, ptr @st_node_packet_qnames, align 4
  %21 = load ptr, ptr %2, align 8
  %22 = load ptr, ptr @st_str_packet_qclasses, align 8
  %23 = call i32 @stats_tree_create_pivot(ptr noundef %21, ptr noundef %22, i32 noundef 0)
  store i32 %23, ptr @st_node_packet_qclasses, align 4
  %24 = load ptr, ptr %2, align 8
  %25 = load ptr, ptr @st_str_packet_rcodes, align 8
  %26 = call i32 @stats_tree_create_pivot(ptr noundef %24, ptr noundef %25, i32 noundef 0)
  store i32 %26, ptr @st_node_packet_rcodes, align 4
  %27 = load ptr, ptr %2, align 8
  %28 = load ptr, ptr @st_str_packet_opcodes, align 8
  %29 = call i32 @stats_tree_create_pivot(ptr noundef %27, ptr noundef %28, i32 noundef 0)
  store i32 %29, ptr @st_node_packet_opcodes, align 4
  %30 = load ptr, ptr %2, align 8
  %31 = load ptr, ptr @st_str_packets_avg_size, align 8
  %32 = call i32 @stats_tree_create_node(ptr noundef %30, ptr noundef %31, i32 noundef 0, i32 noundef 0, i1 noundef zeroext false)
  store i32 %32, ptr @st_node_packets_avg_size, align 4
  %33 = load ptr, ptr %2, align 8
  %34 = load ptr, ptr @st_str_query_stats, align 8
  %35 = call i32 @stats_tree_create_node(ptr noundef %33, ptr noundef %34, i32 noundef 0, i32 noundef 0, i1 noundef zeroext true)
  store i32 %35, ptr @st_node_query_stats, align 4
  %36 = load ptr, ptr %2, align 8
  %37 = load ptr, ptr @st_str_query_qname_len, align 8
  %38 = load i32, ptr @st_node_query_stats, align 4
  %39 = call i32 @stats_tree_create_node(ptr noundef %36, ptr noundef %37, i32 noundef %38, i32 noundef 0, i1 noundef zeroext false)
  store i32 %39, ptr @st_node_query_qname_len, align 4
  %40 = load ptr, ptr %2, align 8
  %41 = load ptr, ptr @st_str_query_domains, align 8
  %42 = load i32, ptr @st_node_query_stats, align 4
  %43 = call i32 @stats_tree_create_node(ptr noundef %40, ptr noundef %41, i32 noundef %42, i32 noundef 0, i1 noundef zeroext true)
  store i32 %43, ptr @st_node_query_domains, align 4
  %44 = load ptr, ptr %2, align 8
  %45 = load ptr, ptr @st_str_query_domains_l1, align 8
  %46 = load i32, ptr @st_node_query_domains, align 4
  %47 = call i32 @stats_tree_create_node(ptr noundef %44, ptr noundef %45, i32 noundef %46, i32 noundef 0, i1 noundef zeroext false)
  store i32 %47, ptr @st_node_query_domains_l1, align 4
  %48 = load ptr, ptr %2, align 8
  %49 = load ptr, ptr @st_str_query_domains_l2, align 8
  %50 = load i32, ptr @st_node_query_domains, align 4
  %51 = call i32 @stats_tree_create_node(ptr noundef %48, ptr noundef %49, i32 noundef %50, i32 noundef 0, i1 noundef zeroext false)
  store i32 %51, ptr @st_node_query_domains_l2, align 4
  %52 = load ptr, ptr %2, align 8
  %53 = load ptr, ptr @st_str_query_domains_l3, align 8
  %54 = load i32, ptr @st_node_query_domains, align 4
  %55 = call i32 @stats_tree_create_node(ptr noundef %52, ptr noundef %53, i32 noundef %54, i32 noundef 0, i1 noundef zeroext false)
  store i32 %55, ptr @st_node_query_domains_l3, align 4
  %56 = load ptr, ptr %2, align 8
  %57 = load ptr, ptr @st_str_query_domains_lmore, align 8
  %58 = load i32, ptr @st_node_query_domains, align 4
  %59 = call i32 @stats_tree_create_node(ptr noundef %56, ptr noundef %57, i32 noundef %58, i32 noundef 0, i1 noundef zeroext false)
  store i32 %59, ptr @st_node_query_domains_lmore, align 4
  %60 = load ptr, ptr %2, align 8
  %61 = load ptr, ptr @st_str_response_stats, align 8
  %62 = call i32 @stats_tree_create_node(ptr noundef %60, ptr noundef %61, i32 noundef 0, i32 noundef 0, i1 noundef zeroext true)
  store i32 %62, ptr @st_node_response_stats, align 4
  %63 = load ptr, ptr %2, align 8
  %64 = load ptr, ptr @st_str_response_nquestions, align 8
  %65 = load i32, ptr @st_node_response_stats, align 4
  %66 = call i32 @stats_tree_create_node(ptr noundef %63, ptr noundef %64, i32 noundef %65, i32 noundef 0, i1 noundef zeroext false)
  store i32 %66, ptr @st_node_response_nquestions, align 4
  %67 = load ptr, ptr %2, align 8
  %68 = load ptr, ptr @st_str_response_nanswers, align 8
  %69 = load i32, ptr @st_node_response_stats, align 4
  %70 = call i32 @stats_tree_create_node(ptr noundef %67, ptr noundef %68, i32 noundef %69, i32 noundef 0, i1 noundef zeroext false)
  store i32 %70, ptr @st_node_response_nanswers, align 4
  %71 = load ptr, ptr %2, align 8
  %72 = load ptr, ptr @st_str_response_nauthorities, align 8
  %73 = load i32, ptr @st_node_response_stats, align 4
  %74 = call i32 @stats_tree_create_node(ptr noundef %71, ptr noundef %72, i32 noundef %73, i32 noundef 0, i1 noundef zeroext false)
  store i32 %74, ptr @st_node_response_nauthorities, align 4
  %75 = load ptr, ptr %2, align 8
  %76 = load ptr, ptr @st_str_response_nadditionals, align 8
  %77 = load i32, ptr @st_node_response_stats, align 4
  %78 = call i32 @stats_tree_create_node(ptr noundef %75, ptr noundef %76, i32 noundef %77, i32 noundef 0, i1 noundef zeroext false)
  store i32 %78, ptr @st_node_response_nadditionals, align 4
  %79 = load ptr, ptr %2, align 8
  %80 = load ptr, ptr @st_str_service_stats, align 8
  %81 = call i32 @stats_tree_create_node(ptr noundef %79, ptr noundef %80, i32 noundef 0, i32 noundef 0, i1 noundef zeroext true)
  store i32 %81, ptr @st_node_service_stats, align 4
  %82 = load ptr, ptr %2, align 8
  %83 = load ptr, ptr @st_str_service_unsolicited, align 8
  %84 = load i32, ptr @st_node_service_stats, align 4
  %85 = call i32 @stats_tree_create_node(ptr noundef %82, ptr noundef %83, i32 noundef %84, i32 noundef 0, i1 noundef zeroext false)
  store i32 %85, ptr @st_node_service_unsolicited, align 4
  %86 = load ptr, ptr %2, align 8
  %87 = load ptr, ptr @st_str_service_retransmission, align 8
  %88 = load i32, ptr @st_node_service_stats, align 4
  %89 = call i32 @stats_tree_create_node(ptr noundef %86, ptr noundef %87, i32 noundef %88, i32 noundef 0, i1 noundef zeroext false)
  store i32 %89, ptr @st_node_service_retransmission, align 4
  %90 = load ptr, ptr %2, align 8
  %91 = load ptr, ptr @st_str_service_rrt, align 8
  %92 = load i32, ptr @st_node_service_stats, align 4
  %93 = call i32 @stats_tree_create_node(ptr noundef %90, ptr noundef %91, i32 noundef %92, i32 noundef 1, i1 noundef zeroext false)
  store i32 %93, ptr @st_node_service_rrt, align 4
  ret void
}