; Function Attrs: null_pointer_is_valid sspstrong uwtable
define internal void @dns_stats_tree_init(ptr noundef %0) #0 {
  %2 = tail call i32 @stats_tree_create_node(ptr noundef %0, ptr noundef nonnull @.str.799, i32 noundef 0, i32 noundef 0, i1 noundef zeroext true)
  %3 = tail call i32 @stats_tree_manip_node_int(i32 noundef 4, ptr noundef %0, ptr noundef nonnull @.str.799, i32 noundef 0, i1 noundef zeroext false, i32 noundef 4194304)
  %4 = tail call i32 @stats_tree_create_pivot(ptr noundef %0, ptr noundef nonnull @.str.904, i32 noundef 0)
  store i32 %4, ptr @st_node_packet_qr, align 4
  %5 = tail call i32 @stats_tree_create_pivot(ptr noundef %0, ptr noundef nonnull @.str.77, i32 noundef 0)
  store i32 %5, ptr @st_node_packet_qtypes, align 4
  %6 = tail call i32 @stats_tree_create_pivot(ptr noundef %0, ptr noundef nonnull @.str.905, i32 noundef 0)
  store i32 %6, ptr @st_node_rr_types, align 4
  %7 = tail call i32 @stats_tree_create_pivot(ptr noundef %0, ptr noundef nonnull @.str.86, i32 noundef 0)
  store i32 %7, ptr @st_node_packet_qnames, align 4
  %8 = tail call i32 @stats_tree_create_pivot(ptr noundef %0, ptr noundef nonnull @.str.78, i32 noundef 0)
  store i32 %8, ptr @st_node_packet_qclasses, align 4
  %9 = tail call i32 @stats_tree_create_pivot(ptr noundef %0, ptr noundef nonnull @.str.906, i32 noundef 0)
  store i32 %9, ptr @st_node_packet_rcodes, align 4
  %10 = tail call i32 @stats_tree_create_pivot(ptr noundef %0, ptr noundef nonnull @.str.907, i32 noundef 0)
  store i32 %10, ptr @st_node_packet_opcodes, align 4
  %11 = tail call i32 @stats_tree_create_node(ptr noundef %0, ptr noundef nonnull @.str.891, i32 noundef 0, i32 noundef 0, i1 noundef zeroext false)
  %12 = tail call i32 @stats_tree_create_node(ptr noundef %0, ptr noundef nonnull @.str.908, i32 noundef 0, i32 noundef 0, i1 noundef zeroext true)
  store i32 %12, ptr @st_node_query_stats, align 4
  %13 = tail call i32 @stats_tree_create_node(ptr noundef %0, ptr noundef nonnull @.str.892, i32 noundef %12, i32 noundef 0, i1 noundef zeroext false)
  %14 = load i32, ptr @st_node_query_stats, align 4
  %15 = tail call i32 @stats_tree_create_node(ptr noundef %0, ptr noundef nonnull @.str.909, i32 noundef %14, i32 noundef 0, i1 noundef zeroext true)
  store i32 %15, ptr @st_node_query_domains, align 4
  %16 = tail call i32 @stats_tree_create_node(ptr noundef %0, ptr noundef nonnull @.str.893, i32 noundef %15, i32 noundef 0, i1 noundef zeroext false)
  %17 = load i32, ptr @st_node_query_domains, align 4
  %18 = tail call i32 @stats_tree_create_node(ptr noundef %0, ptr noundef nonnull @.str.894, i32 noundef %17, i32 noundef 0, i1 noundef zeroext false)
  %19 = load i32, ptr @st_node_query_domains, align 4
  %20 = tail call i32 @stats_tree_create_node(ptr noundef %0, ptr noundef nonnull @.str.895, i32 noundef %19, i32 noundef 0, i1 noundef zeroext false)
  %21 = load i32, ptr @st_node_query_domains, align 4
  %22 = tail call i32 @stats_tree_create_node(ptr noundef %0, ptr noundef nonnull @.str.896, i32 noundef %21, i32 noundef 0, i1 noundef zeroext false)
  %23 = tail call i32 @stats_tree_create_node(ptr noundef %0, ptr noundef nonnull @.str.910, i32 noundef 0, i32 noundef 0, i1 noundef zeroext true)
  store i32 %23, ptr @st_node_response_stats, align 4
  %24 = tail call i32 @stats_tree_create_node(ptr noundef %0, ptr noundef nonnull @.str.897, i32 noundef %23, i32 noundef 0, i1 noundef zeroext false)
  %25 = load i32, ptr @st_node_response_stats, align 4
  %26 = tail call i32 @stats_tree_create_node(ptr noundef %0, ptr noundef nonnull @.str.898, i32 noundef %25, i32 noundef 0, i1 noundef zeroext false)
  %27 = load i32, ptr @st_node_response_stats, align 4
  %28 = tail call i32 @stats_tree_create_node(ptr noundef %0, ptr noundef nonnull @.str.899, i32 noundef %27, i32 noundef 0, i1 noundef zeroext false)
  %29 = load i32, ptr @st_node_response_stats, align 4
  %30 = tail call i32 @stats_tree_create_node(ptr noundef %0, ptr noundef nonnull @.str.900, i32 noundef %29, i32 noundef 0, i1 noundef zeroext false)
  %31 = tail call i32 @stats_tree_create_node(ptr noundef %0, ptr noundef nonnull @.str.911, i32 noundef 0, i32 noundef 0, i1 noundef zeroext true)
  store i32 %31, ptr @st_node_service_stats, align 4
  %32 = tail call i32 @stats_tree_create_node(ptr noundef %0, ptr noundef nonnull @.str.901, i32 noundef %31, i32 noundef 0, i1 noundef zeroext false)
  %33 = load i32, ptr @st_node_service_stats, align 4
  %34 = tail call i32 @stats_tree_create_node(ptr noundef %0, ptr noundef nonnull @.str.902, i32 noundef %33, i32 noundef 0, i1 noundef zeroext false)
  %35 = load i32, ptr @st_node_service_stats, align 4
  %36 = tail call i32 @stats_tree_create_node(ptr noundef %0, ptr noundef nonnull @.str.903, i32 noundef %35, i32 noundef 1, i1 noundef zeroext false)
  ret void
}